Microchip MPLAB XC8 Compiler V2.32

Linker command line:

-W-3 --edf=C:\Program Files\Microchip\xc8\v2.32\pic\dat\en_msgs.txt -cn \
  -h+dist/default/production\LsSnake_ivet_mompin.production.sym \
  --cmf=dist/default/production\LsSnake_ivet_mompin.production.cmf -z \
  -Q18F4321 -oC:\Users\ivetm\AppData\Local\Temp\xcAsfms.4 \
  --defsym=__MPLAB_BUILD=1 \
  -Mdist/default/production/LsSnake_ivet_mompin.production.map -E1 \
  -ver=XC8 Compiler --acfsm=1493 -ASTACK=01EFh-01FFh -pstack=STACK \
  -ACODE=00h-01FFFh -ACONST=00h-01FFFh -ASMALLCONST=0200h-02FFhx30 \
  -AMEDIUMCONST=0200h-01FFFh -ACOMRAM=01h-07Fh -AABS1=00h-01FFh \
  -ABIGRAM=01h-01FFh -ARAM=080h-0FFh,0100h-01FFh -ABANK0=080h-0FFh \
  -ABANK1=0100h-01FFh -ASFR=0F80h-0FFFh -ACONFIG=0300000h-030000Dh \
  -AIDLOC=0200000h-0200007h -AEEDATA=0F00000h-0F000FFh -peeprom_data=EEDATA \
  -preset_vec=00h,intcode=08h,intcodelo=018h,powerup,init -pramtop=0200h \
  -psmallconst=SMALLCONST -pmediumconst=MEDIUMCONST -pconst=CONST \
  -AFARRAM=00h-00h \
  -prdata=COMRAM,nvrram=COMRAM,nvbit=COMRAM,rbss=COMRAM,rbit=COMRAM \
  -pfarbss=FARRAM,fardata=FARRAM,nvFARRAM=FARRAM \
  -pintsave_regs=BIGRAM,bigbss=BIGRAM,bigdata=BIGRAM -pbss=RAM \
  -pidata=CODE,irdata=CODE,ibigdata=CODE,ifardata=CODE -prparam=COMRAM \
  C:\Users\ivetm\AppData\Local\Temp\xcAsfms.o \
  dist/default/production\LsSnake_ivet_mompin.production.o 

Object code version is 3.11

Machine type is 18F4321



                Name                               Link     Load   Length Selector   Space Scale
C:\Users\ivetm\AppData\Local\Temp\xcAsfms.o
                idloc                            200000   200000        8        0       5
                config                           300000   300000        E        0       4
                init                                 26       26        4        C       0
                reset_vec                             0        0        4        0       0
dist/default/production\LsSnake_ivet_mompin.production.o
                intcodelo                            18       18        E        C       0
                intcode                               8        8        6        4       0
                idloc                            200000   200000        8        0       5
                config                           300000   300000        E        0       4
                temp                                 79       79        1        1       1
                mediumconst                        1E14     1E14      1EC      F0A       0
                text64                             194C     194C       48        C       0
                intcode_body                       1B3C     1B3C       28        C       0
                text61                             1AC0     1AC0       2C        C       0
                text60                             1CAE     1CAE       1C        C       0
                text59                             1BD2     1BD2       22        C       0
                text58                             1C90     1C90       1E        C       0
                text57                             1D40     1D40       16        C       0
                text56                             16DC     16DC       6C        C       0
                text55                             1670     1670       6C        C       0
                text54                             1B14     1B14       28        C       0
                text53                             157E     157E       7A        C       0
                text52                             1B8A     1B8A       26        C       0
                text51                             1C34     1C34       20        C       0
                text50                             1994     1994       3E        C       0
                text49                             1232     1232       CA        C       0
                text48                             1AEC     1AEC       28        C       0
                text47                             1DCE     1DCE        C        C       0
                text46                             1C72     1C72       1E        C       0
                text45                             1CCA     1CCA       1A        C       0
                text44                             1D2A     1D2A       16        C       0
                text43                             1D6A     1D6A       14        C       0
                text42                             1D90     1D90       12        C       0
                text41                             1DB2     1DB2       10        C       0
                text40                             1D7E     1D7E       12        C       0
                text39                             1CFC     1CFC       18        C       0
                text38                             1E02     1E02        A        C       0
                text37                             1BB0     1BB0       22        C       0
                text36                             1D14     1D14       16        C       0
                text35                             15F8     15F8       78        C       0
                text34                             1748     1748       68        C       0
                text33                             1902     1902       4A        C       0
                text32                             1A36     1A36       30        C       0
                text31                             19D2     19D2       34        C       0
                text30                             14EA     14EA       94        C       0
                text29                             1860     1860       54        C       0
                text28                             1C54     1C54       1E        C       0
                text27                             18B4     18B4       4E        C       0
                text26                             144C     144C       9E        C       0
                text25                             1A06     1A06       30        C       0
                text24                               2A       2A      362        C       0
                text23                             1C14     1C14       20        C       0
                text22                             13A6     13A6       A6        C       0
                text21                              F4E      F4E      17C        C       0
                text20                             1A94     1A94       2C        C       0
                text19                             1DF8     1DF8        A        C       0
                text18                             1CE4     1CE4       18        C       0
                text17                              DB6      DB6      198        C       0
                text16                              85C      85C      1EE        C       0
                text15                             1BF4     1BF4       20        C       0
                text14                              C14      C14      1A2        C       0
                text13                             10CA     10CA      168        C       0
                text12                             1DEE     1DEE        A        C       0
                text11                             1E0C     1E0C        6        C       0
                text10                             1DC2     1DC2        C        C       0
                text9                              1D56     1D56       14        C       0
                text8                              180A     180A       56        C       0
                text7                              1DE4     1DE4        A        C       0
                text6                               38C      38C      2D2        C       0
                text5                              1DA2     1DA2       10        C       0
                text4                              1B64     1B64       26        C       0
                text3                               65E      65E      1FE        C       0
                text2                              1A66     1A66       2E        C       0
                text1                               A4A      A4A      1CA        C       0
                text0                              12FC     12FC       AA        C       0
                cstackCOMRAM                         55       55       24        1       1
                cstackBANK0                          D0       D0        7       80       1
                bssBIGRAM                            D7       D7      118       D7       1
                dataBANK0                            C6       C6        A       80       1
                bssBANK0                             80       80       46       80       1
                bssCOMRAM                             1        1       54        1       1
                cinit                              17B0     17B0       5A        C       0
                idataBANK0                         1DDA     1DDA        A        C       0

TOTAL           Name                               Link     Load   Length     Space
        CLASS   STACK          

        CLASS   CODE           
                intcodelo                            18       18        E         0
                intcode                               8        8        6         0
                init                                 26       26        4         0
                reset_vec                             0        0        4         0
                text64                             194C     194C       48         0
                intcode_body                       1B3C     1B3C       28         0
                text61                             1AC0     1AC0       2C         0
                text60                             1CAE     1CAE       1C         0
                text59                             1BD2     1BD2       22         0
                text58                             1C90     1C90       1E         0
                text57                             1D40     1D40       16         0
                text56                             16DC     16DC       6C         0
                text55                             1670     1670       6C         0
                text54                             1B14     1B14       28         0
                text53                             157E     157E       7A         0
                text52                             1B8A     1B8A       26         0
                text51                             1C34     1C34       20         0
                text50                             1994     1994       3E         0
                text49                             1232     1232       CA         0
                text48                             1AEC     1AEC       28         0
                text47                             1DCE     1DCE        C         0
                text46                             1C72     1C72       1E         0
                text45                             1CCA     1CCA       1A         0
                text44                             1D2A     1D2A       16         0
                text43                             1D6A     1D6A       14         0
                text42                             1D90     1D90       12         0
                text41                             1DB2     1DB2       10         0
                text40                             1D7E     1D7E       12         0
                text39                             1CFC     1CFC       18         0
                text38                             1E02     1E02        A         0
                text37                             1BB0     1BB0       22         0
                text36                             1D14     1D14       16         0
                text35                             15F8     15F8       78         0
                text34                             1748     1748       68         0
                text33                             1902     1902       4A         0
                text32                             1A36     1A36       30         0
                text31                             19D2     19D2       34         0
                text30                             14EA     14EA       94         0
                text29                             1860     1860       54         0
                text28                             1C54     1C54       1E         0
                text27                             18B4     18B4       4E         0
                text26                             144C     144C       9E         0
                text25                             1A06     1A06       30         0
                text24                               2A       2A      362         0
                text23                             1C14     1C14       20         0
                text22                             13A6     13A6       A6         0
                text21                              F4E      F4E      17C         0
                text20                             1A94     1A94       2C         0
                text19                             1DF8     1DF8        A         0
                text18                             1CE4     1CE4       18         0
                text17                              DB6      DB6      198         0
                text16                              85C      85C      1EE         0
                text15                             1BF4     1BF4       20         0
                text14                              C14      C14      1A2         0
                text13                             10CA     10CA      168         0
                text12                             1DEE     1DEE        A         0
                text11                             1E0C     1E0C        6         0
                text10                             1DC2     1DC2        C         0
                text9                              1D56     1D56       14         0
                text8                              180A     180A       56         0
                text7                              1DE4     1DE4        A         0
                text6                               38C      38C      2D2         0
                text5                              1DA2     1DA2       10         0
                text4                              1B64     1B64       26         0
                text3                               65E      65E      1FE         0
                text2                              1A66     1A66       2E         0
                text1                               A4A      A4A      1CA         0
                text0                              12FC     12FC       AA         0
                cinit                              17B0     17B0       5A         0
                idataBANK0                         1DDA     1DDA        A         0

        CLASS   CONST          

        CLASS   SMALLCONST     

        CLASS   MEDIUMCONST    
                mediumconst                        1E14     1E14      1EC         0

        CLASS   COMRAM         
                temp                                 79       79        1         1
                cstackCOMRAM                         55       55       24         1
                bssCOMRAM                             1        1       54         1

        CLASS   ABS1           

        CLASS   BIGRAM         
                bssBIGRAM                            D7       D7      118         1

        CLASS   RAM            

        CLASS   BANK0          
                cstackBANK0                          D0       D0        7         1
                dataBANK0                            C6       C6        A         1
                bssBANK0                             80       80       46         1

        CLASS   BANK1          

        CLASS   SFR            

        CLASS   CONFIG         
                config                           300000   300000        E         4

        CLASS   IDLOC          
                idloc                            200000   200000        8         5

        CLASS   EEDATA         

        CLASS   FARRAM         



SEGMENTS        Name                           Load    Length   Top    Selector   Space  Class

                reset_vec                      000000  000004  000004         0       0  CODE    
                bssCOMRAM                      000001  000079  00007A         1       1  COMRAM  
                intcode                        000008  000006  00000E         4       0  CODE    
                intcodelo                      000018  001DFA  001E12         C       0  CODE    
                bssBANK0                       000080  000057  0000D7        80       1  BANK0   
                bssBIGRAM                      0000D7  000118  0001EF        D7       1  BIGRAM  
                mediumconst                    001E14  0001EC  002000       F0A       0  MEDIUMCO


UNUSED ADDRESS RANGES

        Name                Unused          Largest block    Delta
        BANK1            0001EF-0001FF               11
        BIGRAM           00007A-00007F                6
                         0001EF-0001FF               11
        CODE             000004-000007                4
                         00000E-000017                A
                         001E12-001E13                2
        COMRAM           00007A-00007F                6
        CONST            000004-000007                4
                         00000E-000017                A
                         001E12-001E13                2
        EEDATA           F00000-F000FF              100
        MEDIUMCONST      001E12-001E13                2
        RAM              0001EF-0001FF               11
        SFR              000F80-000FFF               80
        SMALLCONST       001E12-001E13                2
        STACK            0001EF-0001FF               11

                                  Symbol Table

?_TiGetTics                     cstackCOMRAM 00005B
?___awdiv                       cstackCOMRAM 00005B
?___awmod                       cstackCOMRAM 00005B
?___wmul                        cstackCOMRAM 00005B
?_motor_data                    cstackCOMRAM 00006E
?_scoreReduce                   cstackCOMRAM 000063
CantaData@Data                  cstackCOMRAM 00005D
CantaIR@IR                      cstackCOMRAM 00005D
CantaPartAlta@c                 cstackCOMRAM 00005C
CantaPartBaixa@c                cstackCOMRAM 00005C
DivideScore@score               cstackCOMRAM 000065
EscriuPrimeraOrdre@ordre        cstackCOMRAM 00005C
Espera@Timer                    cstackCOMRAM 000062
Espera@ms                       cstackCOMRAM 000064
LcGotoXY@Column                 cstackCOMRAM 00006A
LcGotoXY@Fisics                 cstackCOMRAM 000068
LcGotoXY@Row                    cstackCOMRAM 000063
LcInit@columns                  cstackCOMRAM 000067
LcInit@i                        cstackCOMRAM 000069
LcInit@rows                     cstackCOMRAM 000068
LcPutChar@c                     cstackCOMRAM 00006B
MenuDoMarquee@option3           cstackCOMRAM 00006F
MenuDoMarquee@option4           cstackCOMRAM 000070
MenuDoMarquee@sub_opt           cstackCOMRAM 000071
MenuDoMarquee@timer             cstackCOMRAM 00006D
PL10                            text24       0002F8
PL100                           text1        000C0A
PL102                           text16       000A2A
PL104                           text17       000F36
PL106                           text64       00198A
PL108                           text26       0014E0
PL110                           text20       001AB6
PL112                           text3        000854
PL114                           text24       000384
PL116                           text14       000DAE
PL118                           text17       000F3E
PL12                            text3        000806
PL120                           text17       000F46
PL122                           text16       000A34
PL124                           text16       000A3A
PL126                           text16       000A42
PL14                            text6        0005DC
PL16                            text3        000818
PL18                            text49       0012F0
PL2                             text17       000F0E
PL20                            text6        000604
PL22                            text3        00082E
PL24                            text6        00061A
PL26                            text14       000D4A
PL28                            text13       00120A
PL30                            text6        000628
PL32                            text24       000308
PL34                            text24       00031A
PL36                            text3        000842
PL38                            text61       001ADE
PL4                             text17       000F22
PL40                            text24       00032C
PL42                            text24       000336
PL44                            text26       0014C4
PL46                            text6        00063A
PL48                            text24       000342
PL50                            text26       0014CE
PL52                            text1        000BF0
PL54                            text6        00064C
PL56                            text32       001A50
PL58                            text60       001CBE
PL6                             text24       0002D2
PL60                            text14       000D6E
PL62                            text24       000354
PL64                            text54       001B32
PL66                            text31       0019EE
PL68                            text14       000D7A
PL70                            text13       00121A
PL72                            text24       000360
PL74                            text24       00036C
PL76                            text24       000378
PL78                            text32       001A5C
PL8                             text24       0002F0
PL80                            text13       00122A
PL82                            text15       001C0A
PL84                            text14       000D8A
PL86                            text1        000C02
PL88                            text14       000D96
PL90                            text14       000DA2
PL92                            text27       0018E4
PL94                            text27       0018EE
PL96                            text27       0018F8
PL98                            text31       0019FC
PrintCouples@character1         cstackCOMRAM 000073
PrintCouples@character2         cstackCOMRAM 000074
PrintCouples@col1               cstackCOMRAM 000070
PrintCouples@col2               cstackCOMRAM 000071
PrintCouples@mode               cstackCOMRAM 000076
PrintCouples@row                cstackCOMRAM 000072
PrintCouples@yes                cstackCOMRAM 000075
PrintData@characters            cstackCOMRAM 00006D
PrintData@col                   cstackCOMRAM 00006F
PrintData@f                     cstackCOMRAM 00006C
PrintData@yes                   cstackCOMRAM 00006E
SMS_Print@chari                 cstackCOMRAM 00006C
ScoreDigits@col1                cstackCOMRAM 000070
ScoreDigits@col2                cstackCOMRAM 000071
ScoreDigits@col3                cstackCOMRAM 000072
ScoreDigits@data2               cstackCOMRAM 000074
ScoreDigits@row                 cstackCOMRAM 000073
TiGetTics@Handle                cstackCOMRAM 00005F
TiGetTics@actual                cstackCOMRAM 000060
TiResetTics@Handle              cstackCOMRAM 00005B
UpDownUsers@fila                cstackCOMRAM 00006D
WaitForBusy@Busy                cstackCOMRAM 000062
_ADCON0                         (abs)        000FC2
_ADCON0bits                     (abs)        000FC2
_ADCON1                         (abs)        000FC1
_ADCON2                         (abs)        000FC0
_ADRESH                         (abs)        000FC4
_BAUDCONbits                    (abs)        000FB8
_CantaData                      text31       0019D2
_CantaIR                        text54       001B14
_CantaPartAlta                  text56       0016DC
_CantaPartBaixa                 text55       001670
_ColumnAct                      bssCOMRAM    000041
_Columns                        bssCOMRAM    000043
_DivideScore                    text32       001A36
_EscriuPrimeraOrdre             text53       00157E
_Espera                         text51       001C34
_EusInit                        text59       001BD2
_EusReset                       text20       001A94
_HighScore@EUSART$F2016         mediumconst  001FCB
_HighScore@EUSART$F2138         mediumconst  001FBC
_HourInit                       text58       001C90
_INTCONbits                     (abs)        000FF2
_InitMarquee                    text44       001D2A
_InitSpeaker                    text37       001BB0
_JoyInit                        text57       001D40
_LATAbits                       (abs)        000F89
_LATBbits                       (abs)        000F8A
_LATDbits                       (abs)        000F8C
_LATEbits                       (abs)        000F8D
_LcClear                        text36       001D14
_LcCursorOff                    text19       001DF8
_LcCursorOn                     text12       001DEE
_LcGotoXY                       text30       0014EA
_LcGotoXY$976                   cstackCOMRAM 000066
_LcInit                         text49       001232
_LcPutChar                      text29       001860
_MenuDoMarquee                  text17       000DB6
_PIR1bits                       (abs)        000F9E
_PORTBbits                      (abs)        000F81
_PORTDbits                      (abs)        000F83
_PrintCouples                   text2        001A66
_PrintData                      text28       001C54
_RCONbits                       (abs)        000FD0
_RCREG                          (abs)        000FAE
_RCSTA                          (abs)        000FAB
_RSI_High                       intcode      000008
_RSI_Low                        intcodelo    000018
_RowAct                         bssCOMRAM    000042
_Rows                           bssCOMRAM    000044
_SMS                            mediumconst  001F41
_SMS_Print                      text10       001DC2
_SMS_PrintReset                 text9        001D56
_SMS_Reset                      text41       001DB2
_SPBRG                          (abs)        000FAF
_STRINGS                        mediumconst  001E15
_ScoreDigits                    text27       0018B4
_T0CON                          (abs)        000FD5
_T0CONbits                      (abs)        000FD5
_TABLE                          mediumconst  001FE9
_TMR0H                          (abs)        000FD7
_TMR0L                          (abs)        000FD6
_TRISAbits                      (abs)        000F92
_TRISBbits                      (abs)        000F93
_TRISC                          (abs)        000F94
_TRISCbits                      (abs)        000F94
_TRISDbits                      (abs)        000F95
_TRISEbits                      (abs)        000F96
_TXREG                          (abs)        000FAD
_TXSTA                          (abs)        000FAC
_TXSTAbits                      (abs)        000FAC
_TiGetTics                      text52       001B8A
_TiGetTimer                     text61       001AC0
_TiInitTimer                    text48       001AEC
_TiResetTics                    text60       001CAE
_Timer                          bssCOMRAM    00000F
_UpDownUsers                    text5        001DA2
_UpdateCursor                   text11       001E0C
_WaitForBusy                    text50       001994
__HRAM                          (abs)        000000
__Habs1                         abs1         000000
__Hbank0                        bank0        000000
__Hbank1                        bank1        000000
__Hbigbss                       bigbss       000000
__Hbigdata                      bigdata      000000
__Hbigram                       bigram       000000
__Hbss                          bss          000000
__HbssBANK0                     bssBANK0     000000
__HbssBIGRAM                    bssBIGRAM    000000
__HbssCOMRAM                    bssCOMRAM    000000
__Hcinit                        cinit        000000
__Hclrtext                      clrtext      000000
__Hcomram                       comram       000000
__Hconfig                       config       30000E
__Hconst                        const        000000
__HcstackBANK0                  cstackBANK0  000000
__HcstackCOMRAM                 cstackCOMRAM 000000
__Hdata                         data         000000
__HdataBANK0                    dataBANK0    000000
__Heeprom_data                  eeprom_data  000000
__Hfarbss                       farbss       000000
__Hfardata                      fardata      000000
__Hibigdata                     ibigdata     000000
__Hidata                        idata        000000
__HidataBANK0                   idataBANK0   000000
__Hidloc                        idloc        200008
__Hifardata                     ifardata     000000
__Hinit                         init         00002A
__Hintcode                      intcode      00000E
__Hintcode_body                 intcode_body 000000
__Hintcodelo                    intcodelo    000026
__Hintentry                     intentry     000000
__Hintret                       intret       000000
__Hintsave_regs                 intsave_regs 000000
__Hirdata                       irdata       000000
__Hmediumconst                  mediumconst  002000
__HnvFARRAM                     nvFARRAM     000000
__Hnvbit                        nvbit        000000
__Hnvrram                       nvrram       000000
__Hpa_nodes0                    pa_nodes0    000000
__Hparam                        rparam       000000
__Hpowerup                      powerup      000026
__Hram                          ram          000000
__Hramtop                       ramtop       000200
__Hrbit                         rbit         000000
__Hrbss                         rbss         000000
__Hrdata                        rdata        000000
__Hreset_vec                    reset_vec    000004
__Hrparam                       rparam       000000
__Hsfr                          sfr          000000
__Hsmallconst                   smallconst   000000
__Hspace_0                      (abs)        002000
__Hspace_1                      (abs)        0001EF
__Hspace_2                      (abs)        000000
__Hspace_4                      (abs)        60000E
__Hstack                        stack        000000
__Hstruct                       struct       000000
__Htemp                         temp         00007A
__Htext                         text         000000
__Htext0                        text0        000000
__Htext1                        text1        000000
__Htext10                       text10       000000
__Htext11                       text11       000000
__Htext12                       text12       000000
__Htext13                       text13       000000
__Htext14                       text14       000000
__Htext15                       text15       000000
__Htext16                       text16       000000
__Htext17                       text17       000000
__Htext18                       text18       000000
__Htext19                       text19       000000
__Htext2                        text2        000000
__Htext20                       text20       000000
__Htext21                       text21       000000
__Htext22                       text22       000000
__Htext23                       text23       000000
__Htext24                       text24       000000
__Htext25                       text25       000000
__Htext26                       text26       000000
__Htext27                       text27       000000
__Htext28                       text28       000000
__Htext29                       text29       000000
__Htext3                        text3        000000
__Htext30                       text30       000000
__Htext31                       text31       000000
__Htext32                       text32       000000
__Htext33                       text33       000000
__Htext34                       text34       000000
__Htext35                       text35       000000
__Htext36                       text36       000000
__Htext37                       text37       000000
__Htext38                       text38       000000
__Htext39                       text39       000000
__Htext4                        text4        000000
__Htext40                       text40       000000
__Htext41                       text41       000000
__Htext42                       text42       000000
__Htext43                       text43       000000
__Htext44                       text44       000000
__Htext45                       text45       000000
__Htext46                       text46       000000
__Htext47                       text47       000000
__Htext48                       text48       000000
__Htext49                       text49       000000
__Htext5                        text5        000000
__Htext50                       text50       000000
__Htext51                       text51       000000
__Htext52                       text52       000000
__Htext53                       text53       000000
__Htext54                       text54       000000
__Htext55                       text55       000000
__Htext56                       text56       000000
__Htext57                       text57       000000
__Htext58                       text58       000000
__Htext59                       text59       000000
__Htext6                        text6        000000
__Htext60                       text60       000000
__Htext61                       text61       000000
__Htext64                       text64       000000
__Htext7                        text7        000000
__Htext8                        text8        000000
__Htext9                        text9        000000
__LRAM                          (abs)        000001
__Labs1                         abs1         000000
__Lbank0                        bank0        000000
__Lbank1                        bank1        000000
__Lbigbss                       bigbss       000000
__Lbigdata                      bigdata      000000
__Lbigram                       bigram       000000
__Lbss                          bss          000000
__LbssBANK0                     bssBANK0     000000
__LbssBIGRAM                    bssBIGRAM    000000
__LbssCOMRAM                    bssCOMRAM    000000
__Lcinit                        cinit        000000
__Lclrtext                      clrtext      000000
__Lcomram                       comram       000000
__Lconfig                       config       000000
__Lconst                        const        000000
__LcstackBANK0                  cstackBANK0  000000
__LcstackCOMRAM                 cstackCOMRAM 000000
__Ldata                         data         000000
__LdataBANK0                    dataBANK0    000000
__Leeprom_data                  eeprom_data  000000
__Lfarbss                       farbss       000000
__Lfardata                      fardata      000000
__Libigdata                     ibigdata     000000
__Lidata                        idata        000000
__LidataBANK0                   idataBANK0   000000
__Lidloc                        idloc        000000
__Lifardata                     ifardata     000000
__Linit                         init         000026
__Lintcode                      intcode      000008
__Lintcode_body                 intcode_body 000000
__Lintcodelo                    intcodelo    000018
__Lintentry                     intentry     000000
__Lintret                       intret       000000
__Lintsave_regs                 intsave_regs 000000
__Lirdata                       irdata       000000
__Lmediumconst                  mediumconst  001E14
__LnvFARRAM                     nvFARRAM     000000
__Lnvbit                        nvbit        000000
__Lnvrram                       nvrram       000000
__Lpa_nodes0                    pa_nodes0    000000
__Lparam                        rparam       000000
__Lpowerup                      powerup      000026
__Lram                          ram          000000
__Lramtop                       ramtop       000200
__Lrbit                         rbit         000000
__Lrbss                         rbss         000000
__Lrdata                        rdata        000000
__Lreset_vec                    reset_vec    000000
__Lrparam                       rparam       000000
__Lsfr                          sfr          000000
__Lsmallconst                   smallconst   000000
__Lspace_0                      (abs)        000000
__Lspace_1                      (abs)        000000
__Lspace_2                      (abs)        000000
__Lspace_4                      (abs)        000000
__Lstack                        stack        000000
__Lstruct                       struct       000000
__Ltemp                         temp         000079
__Ltext                         text         000000
__Ltext0                        text0        000000
__Ltext1                        text1        000000
__Ltext10                       text10       000000
__Ltext11                       text11       000000
__Ltext12                       text12       000000
__Ltext13                       text13       000000
__Ltext14                       text14       000000
__Ltext15                       text15       000000
__Ltext16                       text16       000000
__Ltext17                       text17       000000
__Ltext18                       text18       000000
__Ltext19                       text19       000000
__Ltext2                        text2        000000
__Ltext20                       text20       000000
__Ltext21                       text21       000000
__Ltext22                       text22       000000
__Ltext23                       text23       000000
__Ltext24                       text24       000000
__Ltext25                       text25       000000
__Ltext26                       text26       000000
__Ltext27                       text27       000000
__Ltext28                       text28       000000
__Ltext29                       text29       000000
__Ltext3                        text3        000000
__Ltext30                       text30       000000
__Ltext31                       text31       000000
__Ltext32                       text32       000000
__Ltext33                       text33       000000
__Ltext34                       text34       000000
__Ltext35                       text35       000000
__Ltext36                       text36       000000
__Ltext37                       text37       000000
__Ltext38                       text38       000000
__Ltext39                       text39       000000
__Ltext4                        text4        000000
__Ltext40                       text40       000000
__Ltext41                       text41       000000
__Ltext42                       text42       000000
__Ltext43                       text43       000000
__Ltext44                       text44       000000
__Ltext45                       text45       000000
__Ltext46                       text46       000000
__Ltext47                       text47       000000
__Ltext48                       text48       000000
__Ltext49                       text49       000000
__Ltext5                        text5        000000
__Ltext50                       text50       000000
__Ltext51                       text51       000000
__Ltext52                       text52       000000
__Ltext53                       text53       000000
__Ltext54                       text54       000000
__Ltext55                       text55       000000
__Ltext56                       text56       000000
__Ltext57                       text57       000000
__Ltext58                       text58       000000
__Ltext59                       text59       000000
__Ltext6                        text6        000000
__Ltext60                       text60       000000
__Ltext61                       text61       000000
__Ltext64                       text64       000000
__Ltext7                        text7        000000
__Ltext8                        text8        000000
__Ltext9                        text9        000000
__S0                            (abs)        002000
__S1                            (abs)        0001EF
__S2                            (abs)        000000
__S4                            (abs)        000000
__S5                            (abs)        000000
__TiRSITimer                    text64       00194C
___awdiv                        text35       0015F8
___awdiv@counter                cstackCOMRAM 00005F
___awdiv@dividend               cstackCOMRAM 00005B
___awdiv@divisor                cstackCOMRAM 00005D
___awdiv@quotient               cstackCOMRAM 000061
___awdiv@sign                   cstackCOMRAM 000060
___awmod                        text34       001748
___awmod@counter                cstackCOMRAM 00005F
___awmod@dividend               cstackCOMRAM 00005B
___awmod@divisor                cstackCOMRAM 00005D
___awmod@sign                   cstackCOMRAM 000060
___inthi_sp                     stack        000000
___intlo_sp                     stack        000000
___param_bank                   (abs)        000000
___rparam_used                  (abs)        000001
___sp                           stack        000000
___wmul                         text4        001B64
___wmul@multiplicand            cstackCOMRAM 00005D
___wmul@multiplier              cstackCOMRAM 00005B
___wmul@product                 cstackCOMRAM 00005F
__accesstop                     (abs)        000080
__activetblptr                  (abs)        000002
__end_ofPL10                    text24       000308
__end_ofPL100                   text1        000C14
__end_ofPL102                   text16       000A34
__end_ofPL104                   text17       000F3E
__end_ofPL106                   text64       001994
__end_ofPL108                   text26       0014EA
__end_ofPL110                   text20       001AC0
__end_ofPL112                   text3        00085C
__end_ofPL114                   text24       00038C
__end_ofPL116                   text14       000DB6
__end_ofPL118                   text17       000F46
__end_ofPL12                    text3        000818
__end_ofPL120                   text17       000F4E
__end_ofPL122                   text16       000A3A
__end_ofPL124                   text16       000A42
__end_ofPL126                   text16       000A4A
__end_ofPL14                    text6        000604
__end_ofPL16                    text3        00082E
__end_ofPL18                    text49       0012FC
__end_ofPL2                     text17       000F22
__end_ofPL20                    text6        00061A
__end_ofPL22                    text3        000842
__end_ofPL24                    text6        000628
__end_ofPL26                    text14       000D6E
__end_ofPL28                    text13       00121A
__end_ofPL30                    text6        00063A
__end_ofPL32                    text24       00031A
__end_ofPL34                    text24       00032C
__end_ofPL36                    text3        000854
__end_ofPL38                    text61       001AEC
__end_ofPL4                     text17       000F36
__end_ofPL40                    text24       000336
__end_ofPL42                    text24       000342
__end_ofPL44                    text26       0014CE
__end_ofPL46                    text6        00064C
__end_ofPL48                    text24       000354
__end_ofPL50                    text26       0014E0
__end_ofPL52                    text1        000C02
__end_ofPL54                    text6        00065E
__end_ofPL56                    text32       001A5C
__end_ofPL58                    text60       001CCA
__end_ofPL6                     text24       0002F0
__end_ofPL60                    text14       000D7A
__end_ofPL62                    text24       000360
__end_ofPL64                    text54       001B3C
__end_ofPL66                    text31       0019FC
__end_ofPL68                    text14       000D8A
__end_ofPL70                    text13       00122A
__end_ofPL72                    text24       00036C
__end_ofPL74                    text24       000378
__end_ofPL76                    text24       000384
__end_ofPL78                    text32       001A66
__end_ofPL8                     text24       0002F8
__end_ofPL80                    text13       001232
__end_ofPL82                    text15       001C14
__end_ofPL84                    text14       000D96
__end_ofPL86                    text1        000C0A
__end_ofPL88                    text14       000DA2
__end_ofPL90                    text14       000DAE
__end_ofPL92                    text27       0018EE
__end_ofPL94                    text27       0018F8
__end_ofPL96                    text27       001902
__end_ofPL98                    text31       001A06
__end_of_CantaData              text31       0019EE
__end_of_CantaIR                text54       001B32
__end_of_CantaPartAlta          text56       001748
__end_of_CantaPartBaixa         text55       0016DC
__end_of_DivideScore            text32       001A50
__end_of_EscriuPrimeraOrdre     text53       0015F8
__end_of_Espera                 text51       001C54
__end_of_EusInit                text59       001BF4
__end_of_EusReset               text20       001AB6
__end_of_HighScore@EUSART$F2016 mediumconst  001FDA
__end_of_HighScore@EUSART$F2138 mediumconst  001FCB
__end_of_HourInit               text58       001CAE
__end_of_InitMarquee            text44       001D40
__end_of_InitSpeaker            text37       001BD2
__end_of_JoyInit                text57       001D56
__end_of_LcClear                text36       001D2A
__end_of_LcCursorOff            text19       001E02
__end_of_LcCursorOn             text12       001DF8
__end_of_LcGotoXY               text30       00157E
__end_of_LcInit                 text49       0012F0
__end_of_LcPutChar              text29       0018B4
__end_of_MenuDoMarquee          text17       000F0E
__end_of_PrintCouples           text2        001A94
__end_of_PrintData              text28       001C72
__end_of_RSI_High               intcode_body 001B64
__end_of_RSI_Low                intcodelo    000026
__end_of_SMS                    mediumconst  001F79
__end_of_SMS_Print              text10       001DCE
__end_of_SMS_PrintReset         text9        001D6A
__end_of_SMS_Reset              text41       001DC2
__end_of_STRINGS                mediumconst  001F41
__end_of_ScoreDigits            text27       0018E4
__end_of_TABLE                  mediumconst  001FF5
__end_of_TiGetTics              text52       001BB0
__end_of_TiGetTimer             text61       001ADE
__end_of_TiInitTimer            text48       001B14
__end_of_TiResetTics            text60       001CBE
__end_of_UpDownUsers            text5        001DB2
__end_of_UpdateCursor           text11       001E12
__end_of_WaitForBusy            text50       0019D2
__end_of__TiRSITimer            text64       00198A
__end_of___awdiv                text35       001670
__end_of___awmod                text34       0017B0
__end_of___wmul                 text4        001B8A
__end_of__initialization        cinit        0017FC
__end_of_calculate_dist         text23       001C34
__end_of_enterHour              mediumconst  001F92
__end_of_getKey                 text8        001860
__end_of_initData               text46       001C90
__end_of_initMatrix             text45       001CE4
__end_of_initMenu               text42       001DA2
__end_of_initSMS                text40       001D90
__end_of_initUser               text38       001E0C
__end_of_main                   text0        0013A6
__end_of_marqueePlaceArrow      text18       001CFC
__end_of_marqueeUsers           text14       000D4A
__end_of_menuReset              text43       001D7E
__end_of_motorEusart            text24       0002D2
__end_of_motorJoyStick          text22       00144C
__end_of_motorMatrix            text21       0010CA
__end_of_motorMenu              text16       000A2A
__end_of_motorSpeaker           text26       0014C4
__end_of_motorUser              text13       00120A
__end_of_motor_SMS              text6        0005DC
__end_of_motor_data             text3        000806
__end_of_motor_hour             text1        000BF0
__end_of_new                    mediumconst  001FBC
__end_of_new2                   mediumconst  001FA7
__end_of_place_char             text15       001C0A
__end_of_return_to_main         text47       001DDA
__end_of_score                  mediumconst  001FFF
__end_of_scoreReduce            text33       00194C
__end_of_selectChar             text25       001A36
__end_of_showHour               mediumconst  001FE9
__end_of_start                  text7        001DEE
__end_of_userReset              text39       001D14
__initialization                cinit        0017B0
__mediumconst                   mediumconst  001E14
__pbssBANK0                     bssBANK0     000080
__pbssBIGRAM                    bssBIGRAM    0000D7
__pbssCOMRAM                    bssCOMRAM    000001
__pcinit                        cinit        0017B0
__pcstackBANK0                  cstackBANK0  0000D0
__pcstackCOMRAM                 cstackCOMRAM 000055
__pdataBANK0                    dataBANK0    0000C6
__pidataBANK0                   idataBANK0   001DDA
__pintcode                      intcode      000008
__pintcode_body                 intcode_body 001B3C
__pintcodelo                    intcodelo    000018
__pmediumconst                  mediumconst  001E14
__ptext0                        text0        0012FC
__ptext1                        text1        000A4A
__ptext10                       text10       001DC2
__ptext11                       text11       001E0C
__ptext12                       text12       001DEE
__ptext13                       text13       0010CA
__ptext14                       text14       000C14
__ptext15                       text15       001BF4
__ptext16                       text16       00085C
__ptext17                       text17       000DB6
__ptext18                       text18       001CE4
__ptext19                       text19       001DF8
__ptext2                        text2        001A66
__ptext20                       text20       001A94
__ptext21                       text21       000F4E
__ptext22                       text22       0013A6
__ptext23                       text23       001C14
__ptext24                       text24       00002A
__ptext25                       text25       001A06
__ptext26                       text26       00144C
__ptext27                       text27       0018B4
__ptext28                       text28       001C54
__ptext29                       text29       001860
__ptext3                        text3        00065E
__ptext30                       text30       0014EA
__ptext31                       text31       0019D2
__ptext32                       text32       001A36
__ptext33                       text33       001902
__ptext34                       text34       001748
__ptext35                       text35       0015F8
__ptext36                       text36       001D14
__ptext37                       text37       001BB0
__ptext38                       text38       001E02
__ptext39                       text39       001CFC
__ptext4                        text4        001B64
__ptext40                       text40       001D7E
__ptext41                       text41       001DB2
__ptext42                       text42       001D90
__ptext43                       text43       001D6A
__ptext44                       text44       001D2A
__ptext45                       text45       001CCA
__ptext46                       text46       001C72
__ptext47                       text47       001DCE
__ptext48                       text48       001AEC
__ptext49                       text49       001232
__ptext5                        text5        001DA2
__ptext50                       text50       001994
__ptext51                       text51       001C34
__ptext52                       text52       001B8A
__ptext53                       text53       00157E
__ptext54                       text54       001B14
__ptext55                       text55       001670
__ptext56                       text56       0016DC
__ptext57                       text57       001D40
__ptext58                       text58       001C90
__ptext59                       text59       001BD2
__ptext6                        text6        00038C
__ptext60                       text60       001CAE
__ptext61                       text61       001AC0
__ptext64                       text64       00194C
__ptext7                        text7        001DE4
__ptext8                        text8        00180A
__ptext9                        text9        001D56
__ramtop                        ramtop       000200
__size_of_CantaData             (abs)        000000
__size_of_CantaIR               (abs)        000000
__size_of_CantaPartAlta         (abs)        000000
__size_of_CantaPartBaixa        (abs)        000000
__size_of_DivideScore           (abs)        000000
__size_of_EscriuPrimeraOrdre    (abs)        000000
__size_of_Espera                (abs)        000000
__size_of_EusInit               (abs)        000000
__size_of_EusReset              (abs)        000000
__size_of_HourInit              (abs)        000000
__size_of_InitMarquee           (abs)        000000
__size_of_InitSpeaker           (abs)        000000
__size_of_JoyInit               (abs)        000000
__size_of_LcClear               (abs)        000000
__size_of_LcCursorOff           (abs)        000000
__size_of_LcCursorOn            (abs)        000000
__size_of_LcGotoXY              (abs)        000000
__size_of_LcInit                (abs)        000000
__size_of_LcPutChar             (abs)        000000
__size_of_MenuDoMarquee         (abs)        000000
__size_of_PrintCouples          (abs)        000000
__size_of_PrintData             (abs)        000000
__size_of_RSI_High              (abs)        000000
__size_of_RSI_Low               (abs)        000000
__size_of_SMS_Print             (abs)        000000
__size_of_SMS_PrintReset        (abs)        000000
__size_of_SMS_Reset             (abs)        000000
__size_of_ScoreDigits           (abs)        000000
__size_of_TiGetTics             (abs)        000000
__size_of_TiGetTimer            (abs)        000000
__size_of_TiInitTimer           (abs)        000000
__size_of_TiResetTics           (abs)        000000
__size_of_UpDownUsers           (abs)        000000
__size_of_UpdateCursor          (abs)        000000
__size_of_WaitForBusy           (abs)        000000
__size_of__TiRSITimer           (abs)        000000
__size_of___awdiv               (abs)        000000
__size_of___awmod               (abs)        000000
__size_of___wmul                (abs)        000000
__size_of_calculate_dist        (abs)        000000
__size_of_getKey                (abs)        000000
__size_of_initData              (abs)        000000
__size_of_initMatrix            (abs)        000000
__size_of_initMenu              (abs)        000000
__size_of_initSMS               (abs)        000000
__size_of_initUser              (abs)        000000
__size_of_main                  (abs)        000000
__size_of_marqueePlaceArrow     (abs)        000000
__size_of_marqueeUsers          (abs)        000000
__size_of_menuReset             (abs)        000000
__size_of_motorEusart           (abs)        000000
__size_of_motorJoyStick         (abs)        000000
__size_of_motorMatrix           (abs)        000000
__size_of_motorMenu             (abs)        000000
__size_of_motorSpeaker          (abs)        000000
__size_of_motorUser             (abs)        000000
__size_of_motor_SMS             (abs)        000000
__size_of_motor_data            (abs)        000000
__size_of_motor_hour            (abs)        000000
__size_of_place_char            (abs)        000000
__size_of_return_to_main        (abs)        000000
__size_of_scoreReduce           (abs)        000000
__size_of_selectChar            (abs)        000000
__size_of_start                 (abs)        000000
__size_of_userReset             (abs)        000000
__smallconst                    smallconst   000000
_auxiliar                       bssBANK0     0000A4
_calculate_dist                 text23       001C14
_chars                          dataBANK0    0000C6
_column                         bssCOMRAM    000054
_counter                        bssCOMRAM    000048
_current_score                  bssBANK0     0000B2
_cycles@TTimer$F1506            bssCOMRAM    000029
_data                           bssCOMRAM    000021
_digit                          bssCOMRAM    00004B
_direction                      bssCOMRAM    000049
_enterHour                      mediumconst  001F79
_fila                           bssCOMRAM    000027
_final_key                      bssCOMRAM    000033
_first                          bssCOMRAM    00002E
_getKey                         text8        00180A
_h_Tics                         bssCOMRAM    000011
_hours                          bssCOMRAM    000013
_i@marqueeMenu$F2144            bssCOMRAM    000007
_i@marqueeMenu$F2197            bssCOMRAM    000003
_initData                       text46       001C72
_initMatrix                     text45       001CCA
_initMenu                       text42       001D90
_initSMS                        text40       001D7E
_initUser                       text38       001E02
_j@marqueeMenu$F2142            bssCOMRAM    000009
_j@marqueeMenu$F2195            bssCOMRAM    000005
_k@marqueeMenu$F2145            bssBANK0     0000C0
_k@marqueeMenu$F2198            bssCOMRAM    000001
_key                            bssCOMRAM    000046
_key2                           bssCOMRAM    00003B
_keyEus                         bssCOMRAM    00001D
_keyGot                         bssCOMRAM    000032
_keyHour                        bssCOMRAM    000023
_keyMenu                        bssCOMRAM    00003A
_key_2                          bssCOMRAM    000034
_key_SMS                        bssCOMRAM    00002F
_key_aux                        bssCOMRAM    000035
_key_data                       bssCOMRAM    000025
_key_user                       bssBANK0     0000C5
_m@queueUser$F2168              bssCOMRAM    00001A
_main                           text0        0012FC
_marqueePlaceArrow              text18       001CE4
_marqueeUsers                   text14       000C14
_menuReset                      text43       001D6A
_min                            bssCOMRAM    00000B
_minutes                        bssCOMRAM    000015
_motorEusart                    text24       00002A
_motorJoyStick                  text22       0013A6
_motorMatrix                    text21       000F4E
_motorMenu                      text16       00085C
_motorSpeaker                   text26       00144C
_motorUser                      text13       0010CA
_motor_SMS                      text6        00038C
_motor_data                     text3        00065E
_motor_hour                     text1        000A4A
_n@queueUser$F2169              bssCOMRAM    000019
_new                            mediumconst  001FA7
_new2                           mediumconst  001F92
_num_user                       bssCOMRAM    000031
_num_users3@queueUser$F2171     bssCOMRAM    000018
_num_users@TData$F1605          bssCOMRAM    000028
_num_users@TData$F2161          bssCOMRAM    00001B
_option3@marqueeMenu$F1102      bssCOMRAM    000040
_option4@marqueeMenu$F1103      bssCOMRAM    00003F
_place_char                     text15       001BF4
_pointer                        bssCOMRAM    000051
_r@marqueeMenu$F2143            bssBANK0     0000C2
_r@marqueeMenu$F2196            bssBANK0     0000BE
_return_to_main                 text47       001DCE
_row                            bssCOMRAM    000053
_rowi                           bssCOMRAM    000050
_s_Timers                       bssBANK0     000080
_score                          mediumconst  001FF5
_scoreReduce                    text33       001902
_sec                            bssCOMRAM    00000D
_seconds                        bssCOMRAM    00004C
_seconds_aux                    bssCOMRAM    00001F
_selectChar                     text25       001A06
_showHour                       mediumconst  001FDA
_start                          text7        001DE4
_startGame                      bssCOMRAM    00004E
_stateEus                       bssCOMRAM    00001C
_stateHour@TData$F1717          bssCOMRAM    000024
_stateSMS                       bssCOMRAM    000030
_state_data                     bssCOMRAM    000026
_state_speaker                  bssCOMRAM    00004A
_sub_opt@marqueeMenu$F1104      bssCOMRAM    00003E
_time                           bssBANK0     0000BA
_timer                          bssCOMRAM    000047
_timerEusart                    bssCOMRAM    00001E
_timerHour                      bssCOMRAM    000022
_timerSpeaker1@TTimer$F1504     bssCOMRAM    00002B
_timerSpeaker2@TTimer$F1505     bssCOMRAM    00002A
_timer_SMS                      bssCOMRAM    00002D
_timer_menu@TData$F1116         bssCOMRAM    00003C
_timer_user                     bssCOMRAM    000017
_times3                         bssCOMRAM    000020
_times_8@TData$F1114            bssCOMRAM    00003D
_times_pressed                  bssCOMRAM    00004F
_total_users                    bssCOMRAM    000052
_userReset                      text39       001CFC
_user_selected                  bssCOMRAM    00004D
_users                          bssBIGRAM    0000D7
_x                              bssCOMRAM    000038
_y                              bssCOMRAM    000037
btemp                           temp         000079
calculate_dist@dist             cstackCOMRAM 00005B
calculate_dist@num              cstackCOMRAM 00005C
end_of_initialization           cinit        0017FC
getKey@key                      cstackCOMRAM 00005B
getKey@key_on                   bssCOMRAM    00002C
initData@m                      cstackCOMRAM 00005B
int$flags                       temp         000079
int_func                        intcode_body 001B3C
intlevel0                       text         000000
intlevel1                       text         000000
intlevel2                       text         000000
intlevel3                       text         000000
isa$std                         (abs)        000001
isa$xinst                       (abs)        000000
marqueePlaceArrow@sub_opt       cstackCOMRAM 00006C
marqueeUsers@times_pressed      cstackCOMRAM 000077
motorJoyStick@state             bssCOMRAM    000036
motorMatrix@state               bssCOMRAM    000045
motorMenu@state_menu            bssCOMRAM    000039
motorUser@state_user            bssBANK0     0000C4
motor_SMS@times_pressed         cstackCOMRAM 000070
motor_hour@mode                 cstackBANK0  0000D0
place_char@character            cstackCOMRAM 000071
place_char@row                  cstackCOMRAM 000070
scoreReduce@score               cstackCOMRAM 000063
selectChar@column               cstackCOMRAM 00005E
selectChar@row                  cstackCOMRAM 00005B
stackhi                         (abs)        0001FF
stacklo                         (abs)        0001EF
start                           init         000026
start_initialization            cinit        0017B0
ttemp5                          temp         00007A
ttemp6                          temp         00007D
ttemp7                          temp         000081
wtemp8                          temp         00007A


MODULE INFORMATION

Module		Function		Class		Link	Load	Size
C:\Program Files\Microchip\xc8\v2.32\pic\sources\c99\common\awdiv.c
		___awdiv       		CODE           	15F8	0000	120

C:\Program Files\Microchip\xc8\v2.32\pic\sources\c99\common\awdiv.c estimated size: 120

data.c
		_scoreReduce   		CODE           	1902	0000	74
		_DivideScore   		CODE           	1A36	0000	26
		_motor_data    		CODE           	065E	0000	424
		_PrintData     		CODE           	1C54	0000	30
		_return_to_main		CODE           	1DCE	0000	12
		_UpDownUsers   		CODE           	1DA2	0000	16
		_start         		CODE           	1DE4	0000	10
		_UpdateCursor  		CODE           	1E0C	0000	6
		_initData      		CODE           	1C72	0000	30

data.c estimated size: 628

TTimer.c
		_TiGetTics     		CODE           	1B8A	0000	38
		_TiGetTimer    		CODE           	1AC0	0000	30
		_TiInitTimer   		CODE           	1AEC	0000	40
		__TiRSITimer   		CODE           	194C	0000	62
		_TiResetTics   		CODE           	1CAE	0000	16

TTimer.c estimated size: 186

matrix.c
		_motorMatrix   		CODE           	0F4E	0000	380
		_initMatrix    		CODE           	1CCA	0000	26
		_selectChar    		CODE           	1A06	0000	48

matrix.c estimated size: 454

Eusart.c
		_motorEusart   		CODE           	002A	0000	680
		_EusInit       		CODE           	1BD2	0000	34
		_ScoreDigits   		CODE           	18B4	0000	48
		_EusReset      		CODE           	1A94	0000	34

Eusart.c estimated size: 796

C:\Program Files\Microchip\xc8\v2.32\pic\sources\c99\common\Umul16.c
		___wmul        		CODE           	1B64	0000	38

C:\Program Files\Microchip\xc8\v2.32\pic\sources\c99\common\Umul16.c estimated size: 38

joyStick.c
		_JoyInit       		CODE           	1D40	0000	22
		_calculate_dist		CODE           	1C14	0000	32
		_motorJoyStick 		CODE           	13A6	0000	166

joyStick.c estimated size: 220

speaker.c
		_InitSpeaker   		CODE           	1BB0	0000	34
		_motorSpeaker  		CODE           	144C	0000	120

speaker.c estimated size: 154

shared
		PL12           		CODE           	0806	0000	18
		PL50           		CODE           	14CE	0000	18
		PL8            		CODE           	02F0	0000	8
		PL22           		CODE           	082E	0000	20
		PL60           		CODE           	0D6E	0000	12
		PL100          		CODE           	0C0A	0000	10
		PL32           		CODE           	0308	0000	18
		PL70           		CODE           	121A	0000	16
		PL42           		CODE           	0336	0000	12
		PL80           		CODE           	122A	0000	8
		PL110          		CODE           	1AB6	0000	10
		PL14           		CODE           	05DC	0000	40
		PL52           		CODE           	0BF0	0000	18
		PL90           		CODE           	0DA2	0000	12
		PL24           		CODE           	061A	0000	14
		PL62           		CODE           	0354	0000	12
		PL120          		CODE           	0F46	0000	8
		PL34           		CODE           	031A	0000	18
		PL72           		CODE           	0360	0000	12
		PL44           		CODE           	14C4	0000	10
		PL82           		CODE           	1C0A	0000	10
		PL16           		CODE           	0818	0000	22
		PL54           		CODE           	064C	0000	18
		PL92           		CODE           	18E4	0000	10
		_SMS           		MEDIUMCONST    	1F41	0000	56
		PL26           		CODE           	0D4A	0000	36
		PL64           		CODE           	1B32	0000	10
		_HighScore@EUSART$F2016		MEDIUMCONST    	1FCB	0000	15
		PL102          		CODE           	0A2A	0000	10
		PL36           		CODE           	0842	0000	18
		PL74           		CODE           	036C	0000	12
		PL46           		CODE           	063A	0000	18
		PL84           		CODE           	0D8A	0000	12
		PL112          		CODE           	0854	0000	8
		PL18           		CODE           	12F0	0000	12
		PL56           		CODE           	1A50	0000	12
		PL94           		CODE           	18EE	0000	10
		PL28           		CODE           	120A	0000	16
		PL66           		CODE           	19EE	0000	14
		PL122          		CODE           	0A34	0000	6
		PL38           		CODE           	1ADE	0000	14
		PL76           		CODE           	0378	0000	12
		_HighScore@EUSART$F2138		MEDIUMCONST    	1FBC	0000	15
		PL48           		CODE           	0342	0000	18
		PL86           		CODE           	0C02	0000	8
		PL58           		CODE           	1CBE	0000	12
		PL96           		CODE           	18F8	0000	10
		PL68           		CODE           	0D7A	0000	16
		_score         		MEDIUMCONST    	1FF5	0000	10
		PL104          		CODE           	0F36	0000	8
		PL78           		CODE           	1A5C	0000	10
		PL88           		CODE           	0D96	0000	12
		PL114          		CODE           	0384	0000	8
		PL98           		CODE           	19FC	0000	10
		PL124          		CODE           	0A3A	0000	8
		__initialization		CODE           	17B0	0000	76
		_STRINGS       		MEDIUMCONST    	1E15	0000	300
		_new           		MEDIUMCONST    	1FA7	0000	21
		PL106          		CODE           	198A	0000	10
		PL116          		CODE           	0DAE	0000	8
		_TABLE         		MEDIUMCONST    	1FE9	0000	12
		_showHour      		MEDIUMCONST    	1FDA	0000	15
		PL126          		CODE           	0A42	0000	8
		PL108          		CODE           	14E0	0000	10
		PL118          		CODE           	0F3E	0000	8
		_new2          		MEDIUMCONST    	1F92	0000	21
		PL2            		CODE           	0F0E	0000	20
		PL10           		CODE           	02F8	0000	16
		PL4            		CODE           	0F22	0000	20
		_enterHour     		MEDIUMCONST    	1F79	0000	25
		PL20           		CODE           	0604	0000	22
		PL30           		CODE           	0628	0000	18
		PL6            		CODE           	02D2	0000	30
		PL40           		CODE           	032C	0000	10

shared estimated size: 1440

C:\Program Files\Microchip\xc8\v2.32\pic\sources\c99\common\awmod.c
		___awmod       		CODE           	1748	0000	104

C:\Program Files\Microchip\xc8\v2.32\pic\sources\c99\common\awmod.c estimated size: 104

queueUser.c
		_motorUser     		CODE           	10CA	0000	320
		_marqueeUsers  		CODE           	0C14	0000	310
		_place_char    		CODE           	1BF4	0000	22
		_initUser      		CODE           	1E02	0000	10
		_userReset     		CODE           	1CFC	0000	24

queueUser.c estimated size: 686

menu.c
		_menuReset     		CODE           	1D6A	0000	20
		_initMenu      		CODE           	1D90	0000	18
		_motorMenu     		CODE           	085C	0000	462

menu.c estimated size: 500

THour.c
		_motor_hour    		CODE           	0A4A	0000	422
		_HourInit      		CODE           	1C90	0000	30
		_PrintCouples  		CODE           	1A66	0000	46

THour.c estimated size: 498

SMS.c
		_SMS_Reset     		CODE           	1DB2	0000	16
		_motor_SMS     		CODE           	038C	0000	592
		_SMS_Print     		CODE           	1DC2	0000	12
		_getKey        		CODE           	180A	0000	86
		_SMS_PrintReset		CODE           	1D56	0000	20
		_initSMS       		CODE           	1D7E	0000	18

SMS.c estimated size: 744

MAIN.c
		_RSI_Low       		CODE           	0018	0000	14
		_main          		CODE           	12FC	0000	170
		_RSI_High      		CODE           	0008	0000	46

MAIN.c estimated size: 230

marquee_menu.c
		_marqueePlaceArrow		CODE           	1CE4	0000	24
		_InitMarquee   		CODE           	1D2A	0000	22
		_MenuDoMarquee 		CODE           	0DB6	0000	344

marquee_menu.c estimated size: 390

LCD.c
		_LcPutChar     		CODE           	1860	0000	84
		_EscriuPrimeraOrdre		CODE           	157E	0000	122
		_WaitForBusy   		CODE           	1994	0000	62
		_LcGotoXY      		CODE           	14EA	0000	148
		_LcClear       		CODE           	1D14	0000	22
		_CantaData     		CODE           	19D2	0000	28
		_LcCursorOn    		CODE           	1DEE	0000	10
		_LcCursorOff   		CODE           	1DF8	0000	10
		_LcInit        		CODE           	1232	0000	190
		_CantaPartAlta 		CODE           	16DC	0000	108
		_Espera        		CODE           	1C34	0000	32
		_CantaIR       		CODE           	1B14	0000	30
		_CantaPartBaixa		CODE           	1670	0000	108

LCD.c estimated size: 954

